target datalayout = "e-m:e-p270:32:32-p271:32:32-p272:64:64-i64:64-i128:128-f80:128-n8:16:32:64-S128"
target triple = "x86_64-pc-linux-gnu"

%struct._prefix_stats = type { ptr, i64, i64, i64, i64, i64, ptr }

@prefix_stats = internal global [256 x ptr] zeroinitializer, align 16
@num_prefixes = internal global i32 0, align 4
@total_prefix_size = internal global i32 0, align 4

; Function Attrs: nounwind uwtable
define dso_local void @stats_prefix_clear() #0 {
  %1 = alloca i32, align 4
  %2 = alloca ptr, align 8
  %3 = alloca ptr, align 8
  call void @llvm.lifetime.start.p0(i64 4, ptr %1) #9
  store i32 0, ptr %1, align 4, !tbaa !7
  br label %4

4:                                                ; preds = %29, %0
  %5 = load i32, ptr %1, align 4, !tbaa !7
  %6 = icmp slt i32 %5, 256
  br i1 %6, label %7, label %32

7:                                                ; preds = %4
  call void @llvm.lifetime.start.p0(i64 8, ptr %2) #9
  call void @llvm.lifetime.start.p0(i64 8, ptr %3) #9
  %8 = load i32, ptr %1, align 4, !tbaa !7
  %9 = sext i32 %8 to i64
  %10 = getelementptr inbounds [256 x ptr], ptr @prefix_stats, i64 0, i64 %9
  %11 = load ptr, ptr %10, align 8, !tbaa !9
  store ptr %11, ptr %2, align 8, !tbaa !9
  br label %12

12:                                               ; preds = %23, %7
  %13 = load ptr, ptr %2, align 8, !tbaa !9
  %14 = icmp ne ptr %13, null
  br i1 %14, label %15, label %25

15:                                               ; preds = %12
  %16 = load ptr, ptr %2, align 8, !tbaa !9
  %17 = getelementptr inbounds nuw %struct._prefix_stats, ptr %16, i32 0, i32 6
  %18 = load ptr, ptr %17, align 8, !tbaa !12
  store ptr %18, ptr %3, align 8, !tbaa !9
  %19 = load ptr, ptr %2, align 8, !tbaa !9
  %20 = getelementptr inbounds nuw %struct._prefix_stats, ptr %19, i32 0, i32 0
  %21 = load ptr, ptr %20, align 8, !tbaa !16
  call void @free(ptr noundef %21) #9
  %22 = load ptr, ptr %2, align 8, !tbaa !9
  call void @free(ptr noundef %22) #9
  br label %23

23:                                               ; preds = %15
  %24 = load ptr, ptr %3, align 8, !tbaa !9
  store ptr %24, ptr %2, align 8, !tbaa !9
  br label %12, !llvm.loop !17

25:                                               ; preds = %12
  %26 = load i32, ptr %1, align 4, !tbaa !7
  %27 = sext i32 %26 to i64
  %28 = getelementptr inbounds [256 x ptr], ptr @prefix_stats, i64 0, i64 %27
  store ptr null, ptr %28, align 8, !tbaa !9
  call void @llvm.lifetime.end.p0(i64 8, ptr %3) #9
  call void @llvm.lifetime.end.p0(i64 8, ptr %2) #9
  br label %29

29:                                               ; preds = %25
  %30 = load i32, ptr %1, align 4, !tbaa !7
  %31 = add nsw i32 %30, 1
  store i32 %31, ptr %1, align 4, !tbaa !7
  br label %4, !llvm.loop !19

32:                                               ; preds = %4
  store i32 0, ptr @num_prefixes, align 4, !tbaa !7
  store i32 0, ptr @total_prefix_size, align 4, !tbaa !7
  call void @llvm.lifetime.end.p0(i64 4, ptr %1) #9
  ret void
}