; Function Attrs: nounwind uwtable
define dso_local void @stats_prefix_clear() local_unnamed_addr #2 {
  br label %1

1:                                                ; preds = %0, %._crit_edge
  %indvars.iv = phi i64 [ 0, %0 ], [ %indvars.iv.next, %._crit_edge ]
  %2 = getelementptr inbounds nuw [256 x ptr], ptr @prefix_stats, i64 0, i64 %indvars.iv
  %3 = load ptr, ptr %2, align 8, !tbaa !7
  %.not9 = icmp eq ptr %3, null
  br i1 %.not9, label %._crit_edge, label %.lr.ph

.lr.ph:                                           ; preds = %1, %.lr.ph
  %.0810 = phi ptr [ %5, %.lr.ph ], [ %3, %1 ]
  %4 = getelementptr inbounds nuw i8, ptr %.0810, i64 48
  %5 = load ptr, ptr %4, align 8, !tbaa !10
  %6 = load ptr, ptr %.0810, align 8, !tbaa !14
  tail call void @free(ptr noundef %6) #11
  tail call void @free(ptr noundef nonnull %.0810) #11
  %.not = icmp eq ptr %5, null
  br i1 %.not, label %._crit_edge, label %.lr.ph, !llvm.loop !15

._crit_edge:                                      ; preds = %.lr.ph, %1
  store ptr null, ptr %2, align 8, !tbaa !7
  %indvars.iv.next = add nuw nsw i64 %indvars.iv, 1
  %exitcond.not = icmp eq i64 %indvars.iv.next, 256
  br i1 %exitcond.not, label %7, label %1, !llvm.loop !17

7:                                                ; preds = %._crit_edge
  store i32 0, ptr @num_prefixes, align 4, !tbaa !18
  store i32 0, ptr @total_prefix_size, align 4, !tbaa !18
  ret void
}